; Function Attrs: mustprogress nofree norecurse nosync nounwind willreturn memory(read, inaccessiblemem: none) uwtable
define internal range(i32 0, 99) i32 @probe(ptr noundef readonly captures(none) %0) #0 {
  %2 = getelementptr inbounds nuw i8, ptr %0, i64 8
  %3 = load ptr, ptr %2, align 8, !tbaa !4
  %4 = load i8, ptr %3, align 1, !tbaa !11
  %5 = icmp eq i8 %4, 1
  br i1 %5, label %6, label %26

6:                                                ; preds = %1
  %7 = getelementptr inbounds nuw i8, ptr %3, i64 1
  %8 = load i8, ptr %7, align 1, !tbaa !11
  %9 = icmp eq i8 %8, 1
  br i1 %9, label %10, label %26

10:                                               ; preds = %6
  %11 = getelementptr inbounds nuw i8, ptr %3, i64 2
  %12 = load i8, ptr %11, align 1, !tbaa !11
  %13 = icmp eq i8 %12, 3
  br i1 %13, label %14, label %26

14:                                               ; preds = %10
  %15 = getelementptr inbounds nuw i8, ptr %3, i64 3
  %16 = load i8, ptr %15, align 1, !tbaa !11
  %17 = icmp eq i8 %16, -72
  br i1 %17, label %18, label %26

18:                                               ; preds = %14
  %19 = getelementptr inbounds nuw i8, ptr %3, i64 4
  %20 = load i8, ptr %19, align 1, !tbaa !11
  %21 = icmp eq i8 %20, -128
  br i1 %21, label %22, label %26

22:                                               ; preds = %18
  %23 = getelementptr inbounds nuw i8, ptr %3, i64 5
  %24 = load i8, ptr %23, align 1, !tbaa !11
  %25 = icmp eq i8 %24, 96
  br i1 %25, label %27, label %26

26:                                               ; preds = %22, %18, %14, %10, %6, %1
  br label %27

27:                                               ; preds = %22, %26
  %.0 = phi i32 [ 0, %26 ], [ 98, %22 ]
  ret i32 %.0
}